 plds4

 Timestamp is 59d84fe3 (Sat Oct 07 11:54:11 2017)

 Preferred load address is 10000000

 Start         Length     Name                   Class
 0001:00000000 00001268H .text                   CODE
 0002:00000000 00000040H .idata$5                DATA
 0002:00000040 000000d4H .rdata                  DATA
 0002:00000114 0000003cH .idata$2                DATA
 0002:00000150 00000014H .idata$3                DATA
 0002:00000164 00000040H .idata$4                DATA
 0002:000001a4 000000daH .idata$6                DATA
 0002:00000280 00000329H .edata                  DATA
 0003:00000000 00000004H .CRT$XCA                DATA
 0003:00000004 00000004H .CRT$XCZ                DATA
 0003:00000008 00000004H .CRT$XIA                DATA
 0003:0000000c 00000004H .CRT$XIZ                DATA
 0003:00000010 00000050H .data                   DATA
 0003:00000060 00000028H .bss                    DATA
 0004:00000000 00000058H .rsrc$01                DATA
 0004:00000060 00000288H .rsrc$02                DATA

  Address         Publics by Value              Rva+Base     Lib:Object

 0001:00000000       _PL_InitArenaPool          10001000 f   plarena.obj
 0001:000000c0       _PL_ArenaAllocate          100010c0 f   plarena.obj
 0001:00000380       _PL_ArenaGrow              10001380 f   plarena.obj
 0001:00000420       _PL_ClearArenaPool         10001420 f   plarena.obj
 0001:000004a0       _PL_ArenaRelease           100014a0 f   plarena.obj
 0001:000005b0       _PL_FreeArenaPool          100015b0 f   plarena.obj
 0001:000005d0       _PL_FinishArenaPool        100015d0 f   plarena.obj
 0001:000005f0       _PL_CompactArenaPool       100015f0 f   plarena.obj
 0001:00000600       _PL_ArenaFinish            10001600 f   plarena.obj
 0001:00000690       _PL_SizeOfArenaPoolExcludingPool 10001690 f   plarena.obj
 0001:00000740       _PL_NewHashTable           10001740 f   plhash.obj
 0001:00000850       _PL_HashTableDestroy       10001850 f   plhash.obj
 0001:00000900       _PL_HashTableRawLookup     10001900 f   plhash.obj
 0001:000009a0       _PL_HashTableRawLookupConst 100019a0 f   plhash.obj
 0001:00000a10       _PL_HashTableRawAdd        10001a10 f   plhash.obj
 0001:00000bc0       _PL_HashTableAdd           10001bc0 f   plhash.obj
 0001:00000c70       _PL_HashTableRawRemove     10001c70 f   plhash.obj
 0001:00000de0       _PL_HashTableRemove        10001de0 f   plhash.obj
 0001:00000e40       _PL_HashTableLookup        10001e40 f   plhash.obj
 0001:00000e90       _PL_HashTableLookupConst   10001e90 f   plhash.obj
 0001:00000ee0       _PL_HashTableEnumerateEntries 10001ee0 f   plhash.obj
 0001:00000fe0       _PL_HashTableDump          10001fe0 f   plhash.obj
 0001:00001010       _PL_HashString             10002010 f   plhash.obj
 0001:00001060       _PL_CompareStrings         10002060 f   plhash.obj
 0001:000010d0       _PL_CompareValues          100020d0 f   plhash.obj
 0001:000010f0       _libVersionPoint           100020f0 f   plvrsion.obj
 0001:000010fa       __CRT_INIT@12              100020fa f   MSVCRT:crtdll.obj
 0001:000011a5       __DllMainCRTStartup@12     100021a5 f   MSVCRT:crtdll.obj
 0001:00001242       __initterm                 10002242 f   MSVCRT:MSVCRT.dll
 0001:00001248       _DllMain@12                10002248 f   MSVCRT:dllmain.obj
 0002:00000000       __imp__DisableThreadLibraryCalls@4 10003000     kernel32:KERNEL32.dll
 0002:00000004       \177KERNEL32_NULL_THUNK_DATA 10003004     kernel32:KERNEL32.dll
 0002:00000008       __imp___adjust_fdiv        10003008     MSVCRT:MSVCRT.dll
 0002:0000000c       __imp__malloc              1000300c     MSVCRT:MSVCRT.dll
 0002:00000010       __imp___initterm           10003010     MSVCRT:MSVCRT.dll
 0002:00000014       __imp__free                10003014     MSVCRT:MSVCRT.dll
 0002:00000018       \177MSVCRT_NULL_THUNK_DATA 10003018     MSVCRT:MSVCRT.dll
 0002:0000001c       __imp__PR_DestroyLock      1000301c     nspr4:nspr4.dll
 0002:00000020       __imp__PR_Free             10003020     nspr4:nspr4.dll
 0002:00000024       __imp__PR_Unlock           10003024     nspr4:nspr4.dll
 0002:00000028       __imp__PR_NewLock          10003028     nspr4:nspr4.dll
 0002:0000002c       __imp__PR_CallOnce         1000302c     nspr4:nspr4.dll
 0002:00000030       __imp__PR_Lock             10003030     nspr4:nspr4.dll
 0002:00000034       __imp__PR_Malloc           10003034     nspr4:nspr4.dll
 0002:00000038       __imp__PR_CeilingLog2      10003038     nspr4:nspr4.dll
 0002:0000003c       \177nspr4_NULL_THUNK_DATA  1000303c     nspr4:nspr4.dll
 0002:00000070       ??_C@_00A@?$AA@            10003070     plvrsion.obj
 0002:00000074       ??_C@_0BM@BDPA@http?3?1?1www?4mozilla?4org?1MPL?1?$AA@ 10003074     plvrsion.obj
 0002:00000090       ??_C@_0EM@OGBH@Copyright?5?$CIc?$CJ?51998?5Netscape?5Comm@ 10003090     plvrsion.obj
 0002:000000dc       ??_C@_03PHGM@N?1A?$AA@     100030dc     plvrsion.obj
 0002:000000e0       ??_C@_0BB@GHFL@Portable?5runtime?$AA@ 100030e0     plvrsion.obj
 0002:000000f4       ??_C@_09KKOM@plds4?4dll?$AA@ 100030f4     plvrsion.obj
 0002:00000100       ??_C@_0BE@DINH@2017?910?907?511?354?310?$AA@ 10003100     plvrsion.obj
 0002:00000114       __IMPORT_DESCRIPTOR_nspr4  10003114     nspr4:nspr4.dll
 0002:00000128       __IMPORT_DESCRIPTOR_MSVCRT 10003128     MSVCRT:MSVCRT.dll
 0002:0000013c       __IMPORT_DESCRIPTOR_KERNEL32 1000313c     kernel32:KERNEL32.dll
 0002:00000150       __NULL_IMPORT_DESCRIPTOR   10003150     nspr4:nspr4.dll
 0003:00000000       ___xc_a                    10004000     MSVCRT:cinitexe.obj
 0003:00000004       ___xc_z                    10004004     MSVCRT:cinitexe.obj
 0003:00000008       ___xi_a                    10004008     MSVCRT:cinitexe.obj
 0003:0000000c       ___xi_z                    1000400c     MSVCRT:cinitexe.obj
 0003:00000020       _prVersionDescription_libplds4 10004020     plvrsion.obj
 0003:00000078       __adjust_fdiv              10004078     <common>
 0003:0000007c       ___onexitend               1000407c     <common>
 0003:00000080       ___onexitbegin             10004080     <common>
 0003:00000084       __pRawDllMain              10004084     <common>

 entry point at        0001:000011a5

 Static symbols

 0001:000006d0       _DefaultAllocTable         100016d0 f   plhash.obj
 0001:000006f0       _DefaultFreeTable          100016f0 f   plhash.obj
 0001:00000710       _DefaultAllocEntry         10001710 f   plhash.obj
 0001:00000720       _DefaultFreeEntry          10001720 f   plhash.obj
 0001:00000300       _LockArena                 10001300 f   plarena.obj
 0001:00000340       _InitializeArenas          10001340 f   plarena.obj
 0001:00000360       _UnlockArena               10001360 f   plarena.obj
 0001:00000440       _ClearArenaList            10001440 f   plarena.obj
 0001:00000510       _FreeArenaList             10001510 f   plarena.obj
